target datalayout = "e-m:e-p270:32:32-p271:32:32-p272:64:64-i64:64-i128:128-f80:128-n8:16:32:64-S128"
target triple = "x86_64-pc-linux-gnu"

@.str.174 = private unnamed_addr constant [18 x i8] c"Extended Module: \00", align 1

; Function Attrs: nounwind uwtable
define hidden i32 @jar_xm_check_sanity_preload(ptr noundef %0, i64 noundef %1) #0 {
  %3 = alloca i32, align 4
  %4 = alloca ptr, align 8
  %5 = alloca i64, align 8
  store ptr %0, ptr %4, align 8
  store i64 %1, ptr %5, align 8
  %6 = load i64, ptr %5, align 8
  %7 = icmp ult i64 %6, 60
  br i1 %7, label %8, label %9

8:                                                ; preds = %2
  store i32 4, ptr %3, align 4
  br label %35

9:                                                ; preds = %2
  %10 = load ptr, ptr %4, align 8
  %11 = call i32 @memcmp(ptr noundef @.str.174, ptr noundef %10, i64 noundef 17) #25
  %12 = icmp ne i32 %11, 0
  br i1 %12, label %13, label %14

13:                                               ; preds = %9
  store i32 1, ptr %3, align 4
  br label %35

14:                                               ; preds = %9
  %15 = load ptr, ptr %4, align 8
  %16 = getelementptr inbounds i8, ptr %15, i64 37
  %17 = load i8, ptr %16, align 1
  %18 = sext i8 %17 to i32
  %19 = icmp ne i32 %18, 26
  br i1 %19, label %20, label %21

20:                                               ; preds = %14
  store i32 2, ptr %3, align 4
  br label %35

21:                                               ; preds = %14
  %22 = load ptr, ptr %4, align 8
  %23 = getelementptr inbounds i8, ptr %22, i64 59
  %24 = load i8, ptr %23, align 1
  %25 = sext i8 %24 to i32
  %26 = icmp ne i32 %25, 1
  br i1 %26, label %33, label %27

27:                                               ; preds = %21
  %28 = load ptr, ptr %4, align 8
  %29 = getelementptr inbounds i8, ptr %28, i64 58
  %30 = load i8, ptr %29, align 1
  %31 = sext i8 %30 to i32
  %32 = icmp ne i32 %31, 4
  br i1 %32, label %33, label %34

33:                                               ; preds = %27, %21
  store i32 3, ptr %3, align 4
  br label %35

34:                                               ; preds = %27
  store i32 0, ptr %3, align 4
  br label %35

35:                                               ; preds = %34, %33, %20, %13, %8
  %36 = load i32, ptr %3, align 4
  ret i32 %36
}