; Function Attrs: mustprogress nofree nounwind willreturn memory(argmem: read) uwtable
define hidden range(i32 0, 5) i32 @jar_xm_check_sanity_preload(ptr noundef readonly captures(none) %0, i64 noundef %1) local_unnamed_addr #59 {
  %3 = icmp ult i64 %1, 60
  br i1 %3, label %14, label %4

4:                                                ; preds = %2
  %bcmp = tail call i32 @bcmp(ptr noundef nonnull dereferenceable(17) @.str.174, ptr noundef nonnull dereferenceable(17) %0, i64 17)
  %.not = icmp eq i32 %bcmp, 0
  br i1 %.not, label %5, label %14

5:                                                ; preds = %4
  %6 = getelementptr inbounds nuw i8, ptr %0, i64 37
  %7 = load i8, ptr %6, align 1
  %.not5 = icmp eq i8 %7, 26
  br i1 %.not5, label %8, label %14

8:                                                ; preds = %5
  %9 = getelementptr inbounds nuw i8, ptr %0, i64 59
  %10 = load i8, ptr %9, align 1
  %.not6 = icmp eq i8 %10, 1
  br i1 %.not6, label %11, label %14

11:                                               ; preds = %8
  %12 = getelementptr inbounds nuw i8, ptr %0, i64 58
  %13 = load i8, ptr %12, align 1
  %.not7 = icmp eq i8 %13, 4
  %spec.select = select i1 %.not7, i32 0, i32 3
  br label %14

14:                                               ; preds = %11, %8, %5, %4, %2
  %.0 = phi i32 [ 4, %2 ], [ 1, %4 ], [ 2, %5 ], [ 3, %8 ], [ %spec.select, %11 ]
  ret i32 %.0
}